target datalayout = "e-m:e-p270:32:32-p271:32:32-p272:64:64-i64:64-i128:128-f80:128-n8:16:32:64-S128"
target triple = "x86_64-pc-linux-gnu"

%struct.BackendGlobalData = type <{ ptr, ptr, i8, i8, i8, i8, i8, i8, i8, i8, i8, [3 x i8], i32, ptr, ptr, ptr, ptr, ptr, ptr, ptr, ptr, ptr, ptr, ptr, ptr, ptr, i32, %struct.jvmtiCapabilities, i8, [3 x i8], %struct.jvmtiEventCallbacks, ptr, ptr, ptr, ptr, ptr, ptr, ptr, i32, [4 x i8], ptr, i64, i32, [4 x i8], ptr, i32, i32, i8, i8, [6 x i8] }>
%struct.jvmtiCapabilities = type { i64, i64 }
%struct.jvmtiEventCallbacks = type { ptr, ptr, ptr, ptr, ptr, ptr, ptr, ptr, ptr, ptr, ptr, ptr, ptr, ptr, ptr, ptr, ptr, ptr, ptr, ptr, ptr, ptr, ptr, ptr, ptr, ptr, ptr, ptr, ptr, ptr, ptr, ptr, ptr, ptr, ptr, ptr, ptr, ptr, ptr }
%struct.JNINativeInterface_ = type { ptr, ptr, ptr, ptr, ptr, ptr, ptr, ptr, ptr, ptr, ptr, ptr, ptr, ptr, ptr, ptr, ptr, ptr, ptr, ptr, ptr, ptr, ptr, ptr, ptr, ptr, ptr, ptr, ptr, ptr, ptr, ptr, ptr, ptr, ptr, ptr, ptr, ptr, ptr, ptr, ptr, ptr, ptr, ptr, ptr, ptr, ptr, ptr, ptr, ptr, ptr, ptr, ptr, ptr, ptr, ptr, ptr, ptr, ptr, ptr, ptr, ptr, ptr, ptr, ptr, ptr, ptr, ptr, ptr, ptr, ptr, ptr, ptr, ptr, ptr, ptr, ptr, ptr, ptr, ptr, ptr, ptr, ptr, ptr, ptr, ptr, ptr, ptr, ptr, ptr, ptr, ptr, ptr, ptr, ptr, ptr, ptr, ptr, ptr, ptr, ptr, ptr, ptr, ptr, ptr, ptr, ptr, ptr, ptr, ptr, ptr, ptr, ptr, ptr, ptr, ptr, ptr, ptr, ptr, ptr, ptr, ptr, ptr, ptr, ptr, ptr, ptr, ptr, ptr, ptr, ptr, ptr, ptr, ptr, ptr, ptr, ptr, ptr, ptr, ptr, ptr, ptr, ptr, ptr, ptr, ptr, ptr, ptr, ptr, ptr, ptr, ptr, ptr, ptr, ptr, ptr, ptr, ptr, ptr, ptr, ptr, ptr, ptr, ptr, ptr, ptr, ptr, ptr, ptr, ptr, ptr, ptr, ptr, ptr, ptr, ptr, ptr, ptr, ptr, ptr, ptr, ptr, ptr, ptr, ptr, ptr, ptr, ptr, ptr, ptr, ptr, ptr, ptr, ptr, ptr, ptr, ptr, ptr, ptr, ptr, ptr, ptr, ptr, ptr, ptr, ptr, ptr, ptr, ptr, ptr, ptr, ptr, ptr, ptr, ptr, ptr, ptr, ptr, ptr, ptr, ptr, ptr, ptr, ptr, ptr, ptr, ptr, ptr, ptr, ptr, ptr, ptr, ptr, ptr, ptr }

@gdata = external global ptr, align 8
@.str.4 = private unnamed_addr constant [4 x i8] c"JNI\00", align 1
@.str.5 = private unnamed_addr constant [61 x i8] c"src/jdk.jdwp.agent/share/native/libjdwp/ArrayReferenceImpl.c\00", align 1
@.str.6 = private unnamed_addr constant [5 x i8] c"%s()\00", align 1
@.str.7 = private unnamed_addr constant [15 x i8] c"GetArrayLength\00", align 1
@.str.8 = private unnamed_addr constant [15 x i8] c"GetObjectClass\00", align 1
@.str.9 = private unnamed_addr constant [14 x i8] c"PopLocalFrame\00", align 1
@.str.10 = private unnamed_addr constant [18 x i8] c"ExceptionOccurred\00", align 1
@.str.11 = private unnamed_addr constant [15 x i8] c"ExceptionClear\00", align 1

; Function Attrs: nounwind uwtable
define internal zeroext i8 @getValues(ptr noundef %0, ptr noundef %1) #0 {
  %3 = alloca i8, align 1
  %4 = alloca ptr, align 8
  %5 = alloca ptr, align 8
  %6 = alloca ptr, align 8
  %7 = alloca i32, align 4
  %8 = alloca ptr, align 8
  %9 = alloca i32, align 4
  %10 = alloca i32, align 4
  %11 = alloca ptr, align 8
  %12 = alloca ptr, align 8
  %13 = alloca i32, align 4
  store ptr %0, ptr %4, align 8
  store ptr %1, ptr %5, align 8
  %14 = call ptr @getEnv()
  store ptr %14, ptr %6, align 8
  %15 = load ptr, ptr %6, align 8
  %16 = load ptr, ptr %4, align 8
  %17 = call ptr @inStream_readArrayRef(ptr noundef %15, ptr noundef %16)
  store ptr %17, ptr %8, align 8
  %18 = load ptr, ptr %4, align 8
  %19 = call zeroext i16 @inStream_error(ptr noundef %18)
  %20 = icmp ne i16 %19, 0
  br i1 %20, label %21, label %22

21:                                               ; preds = %2
  store i8 1, ptr %3, align 1
  br label %154

22:                                               ; preds = %2
  %23 = load ptr, ptr %4, align 8
  %24 = call i32 @inStream_readInt(ptr noundef %23)
  store i32 %24, ptr %9, align 4
  %25 = load ptr, ptr %4, align 8
  %26 = call zeroext i16 @inStream_error(ptr noundef %25)
  %27 = icmp ne i16 %26, 0
  br i1 %27, label %28, label %29

28:                                               ; preds = %22
  store i8 1, ptr %3, align 1
  br label %154

29:                                               ; preds = %22
  %30 = load ptr, ptr %4, align 8
  %31 = call i32 @inStream_readInt(ptr noundef %30)
  store i32 %31, ptr %10, align 4
  %32 = load ptr, ptr %4, align 8
  %33 = call zeroext i16 @inStream_error(ptr noundef %32)
  %34 = icmp ne i16 %33, 0
  br i1 %34, label %35, label %36

35:                                               ; preds = %29
  store i8 1, ptr %3, align 1
  br label %154

36:                                               ; preds = %29
  %37 = load ptr, ptr @gdata, align 8
  %38 = getelementptr inbounds %struct.BackendGlobalData, ptr %37, i32 0, i32 38
  %39 = load i32, ptr %38, align 8
  %40 = and i32 %39, 2
  %41 = icmp ne i32 %40, 0
  br i1 %41, label %42, label %43

42:                                               ; preds = %36
  call void @log_message_begin(ptr noundef @.str.4, ptr noundef @.str.5, i32 noundef 254)
  call void (ptr, ...) @log_message_end(ptr noundef @.str.6, ptr noundef @.str.7)
  br label %44

43:                                               ; preds = %36
  br label %44

44:                                               ; preds = %43, %42
  %45 = load ptr, ptr %6, align 8
  %46 = load ptr, ptr %45, align 8
  %47 = getelementptr inbounds %struct.JNINativeInterface_, ptr %46, i32 0, i32 171
  %48 = load ptr, ptr %47, align 8
  %49 = load ptr, ptr %6, align 8
  %50 = load ptr, ptr %8, align 8
  %51 = call i32 %48(ptr noundef %49, ptr noundef %50)
  store i32 %51, ptr %7, align 4
  %52 = load i32, ptr %10, align 4
  %53 = icmp eq i32 %52, -1
  br i1 %53, label %54, label %58

54:                                               ; preds = %44
  %55 = load i32, ptr %7, align 4
  %56 = load i32, ptr %9, align 4
  %57 = sub nsw i32 %55, %56
  store i32 %57, ptr %10, align 4
  br label %58

58:                                               ; preds = %54, %44
  %59 = load i32, ptr %9, align 4
  %60 = icmp slt i32 %59, 0
  br i1 %60, label %66, label %61

61:                                               ; preds = %58
  %62 = load i32, ptr %9, align 4
  %63 = load i32, ptr %7, align 4
  %64 = sub nsw i32 %63, 1
  %65 = icmp sgt i32 %62, %64
  br i1 %65, label %66, label %68

66:                                               ; preds = %61, %58
  %67 = load ptr, ptr %5, align 8
  call void @outStream_setError(ptr noundef %67, i16 noundef zeroext 503)
  store i8 1, ptr %3, align 1
  br label %154

68:                                               ; preds = %61
  %69 = load i32, ptr %10, align 4
  %70 = icmp slt i32 %69, 0
  br i1 %70, label %77, label %71

71:                                               ; preds = %68
  %72 = load i32, ptr %10, align 4
  %73 = load i32, ptr %9, align 4
  %74 = add nsw i32 %72, %73
  %75 = load i32, ptr %7, align 4
  %76 = icmp sgt i32 %74, %75
  br i1 %76, label %77, label %79

77:                                               ; preds = %71, %68
  %78 = load ptr, ptr %5, align 8
  call void @outStream_setError(ptr noundef %78, i16 noundef zeroext 504)
  store i8 1, ptr %3, align 1
  br label %154

79:                                               ; preds = %71
  %80 = load ptr, ptr %6, align 8
  call void @createLocalRefSpace(ptr noundef %80, i32 noundef 1)
  store ptr null, ptr %11, align 8
  %81 = load ptr, ptr @gdata, align 8
  %82 = getelementptr inbounds %struct.BackendGlobalData, ptr %81, i32 0, i32 38
  %83 = load i32, ptr %82, align 8
  %84 = and i32 %83, 2
  %85 = icmp ne i32 %84, 0
  br i1 %85, label %86, label %87

86:                                               ; preds = %79
  call void @log_message_begin(ptr noundef @.str.4, ptr noundef @.str.5, i32 noundef 274)
  call void (ptr, ...) @log_message_end(ptr noundef @.str.6, ptr noundef @.str.8)
  br label %88

87:                                               ; preds = %79
  br label %88

88:                                               ; preds = %87, %86
  %89 = load ptr, ptr %6, align 8
  %90 = load ptr, ptr %89, align 8
  %91 = getelementptr inbounds %struct.JNINativeInterface_, ptr %90, i32 0, i32 31
  %92 = load ptr, ptr %91, align 8
  %93 = load ptr, ptr %6, align 8
  %94 = load ptr, ptr %8, align 8
  %95 = call ptr %92(ptr noundef %93, ptr noundef %94)
  store ptr %95, ptr %12, align 8
  %96 = load ptr, ptr %12, align 8
  %97 = call i32 @classSignature(ptr noundef %96, ptr noundef %11, ptr noundef null)
  store i32 %97, ptr %13, align 4
  %98 = load i32, ptr %13, align 4
  %99 = icmp eq i32 %98, 0
  br i1 %99, label %100, label %108

100:                                              ; preds = %88
  %101 = load ptr, ptr %6, align 8
  %102 = load ptr, ptr %5, align 8
  %103 = load ptr, ptr %11, align 8
  %104 = load ptr, ptr %8, align 8
  %105 = load i32, ptr %9, align 4
  %106 = load i32, ptr %10, align 4
  call void @writeComponents(ptr noundef %101, ptr noundef %102, ptr noundef %103, ptr noundef %104, i32 noundef %105, i32 noundef %106)
  %107 = load ptr, ptr %11, align 8
  call void @jvmtiDeallocate(ptr noundef %107)
  br label %108

108:                                              ; preds = %100, %88
  %109 = load ptr, ptr @gdata, align 8
  %110 = getelementptr inbounds %struct.BackendGlobalData, ptr %109, i32 0, i32 38
  %111 = load i32, ptr %110, align 8
  %112 = and i32 %111, 2
  %113 = icmp ne i32 %112, 0
  br i1 %113, label %114, label %115

114:                                              ; preds = %108
  call void @log_message_begin(ptr noundef @.str.4, ptr noundef @.str.5, i32 noundef 281)
  call void (ptr, ...) @log_message_end(ptr noundef @.str.6, ptr noundef @.str.9)
  br label %116

115:                                              ; preds = %108
  br label %116

116:                                              ; preds = %115, %114
  %117 = load ptr, ptr %6, align 8
  %118 = load ptr, ptr %117, align 8
  %119 = getelementptr inbounds %struct.JNINativeInterface_, ptr %118, i32 0, i32 20
  %120 = load ptr, ptr %119, align 8
  %121 = load ptr, ptr %6, align 8
  %122 = call ptr %120(ptr noundef %121, ptr noundef null)
  %123 = load ptr, ptr @gdata, align 8
  %124 = getelementptr inbounds %struct.BackendGlobalData, ptr %123, i32 0, i32 38
  %125 = load i32, ptr %124, align 8
  %126 = and i32 %125, 2
  %127 = icmp ne i32 %126, 0
  br i1 %127, label %128, label %129

128:                                              ; preds = %116
  call void @log_message_begin(ptr noundef @.str.4, ptr noundef @.str.5, i32 noundef 283)
  call void (ptr, ...) @log_message_end(ptr noundef @.str.6, ptr noundef @.str.10)
  br label %130

129:                                              ; preds = %116
  br label %130

130:                                              ; preds = %129, %128
  %131 = load ptr, ptr %6, align 8
  %132 = load ptr, ptr %131, align 8
  %133 = getelementptr inbounds %struct.JNINativeInterface_, ptr %132, i32 0, i32 15
  %134 = load ptr, ptr %133, align 8
  %135 = load ptr, ptr %6, align 8
  %136 = call ptr %134(ptr noundef %135)
  %137 = icmp ne ptr %136, null
  br i1 %137, label %138, label %153

138:                                              ; preds = %130
  %139 = load ptr, ptr %5, align 8
  call void @outStream_setError(ptr noundef %139, i16 noundef zeroext 113)
  %140 = load ptr, ptr @gdata, align 8
  %141 = getelementptr inbounds %struct.BackendGlobalData, ptr %140, i32 0, i32 38
  %142 = load i32, ptr %141, align 8
  %143 = and i32 %142, 2
  %144 = icmp ne i32 %143, 0
  br i1 %144, label %145, label %146

145:                                              ; preds = %138
  call void @log_message_begin(ptr noundef @.str.4, ptr noundef @.str.5, i32 noundef 285)
  call void (ptr, ...) @log_message_end(ptr noundef @.str.6, ptr noundef @.str.11)
  br label %147

146:                                              ; preds = %138
  br label %147

147:                                              ; preds = %146, %145
  %148 = load ptr, ptr %6, align 8
  %149 = load ptr, ptr %148, align 8
  %150 = getelementptr inbounds %struct.JNINativeInterface_, ptr %149, i32 0, i32 17
  %151 = load ptr, ptr %150, align 8
  %152 = load ptr, ptr %6, align 8
  call void %151(ptr noundef %152)
  br label %153

153:                                              ; preds = %147, %130
  store i8 1, ptr %3, align 1
  br label %154

154:                                              ; preds = %153, %77, %66, %35, %28, %21
  %155 = load i8, ptr %3, align 1
  ret i8 %155
}