; Function Attrs: nounwind uwtable
define internal noundef zeroext i8 @getValues(ptr noundef %0, ptr noundef %1) #0 {
  %3 = alloca ptr, align 8
  %4 = tail call ptr @getEnv() #4
  %5 = tail call ptr @inStream_readArrayRef(ptr noundef %4, ptr noundef %0) #4
  %6 = tail call zeroext i16 @inStream_error(ptr noundef %0) #4
  %.not = icmp eq i16 %6, 0
  br i1 %.not, label %7, label %80

7:                                                ; preds = %2
  %8 = tail call i32 @inStream_readInt(ptr noundef %0) #4
  %9 = tail call zeroext i16 @inStream_error(ptr noundef %0) #4
  %.not42 = icmp eq i16 %9, 0
  br i1 %.not42, label %10, label %80

10:                                               ; preds = %7
  %11 = tail call i32 @inStream_readInt(ptr noundef %0) #4
  %12 = tail call zeroext i16 @inStream_error(ptr noundef %0) #4
  %.not43 = icmp eq i16 %12, 0
  br i1 %.not43, label %13, label %80

13:                                               ; preds = %10
  %14 = load ptr, ptr @gdata, align 8
  %15 = getelementptr inbounds i8, ptr %14, i64 528
  %16 = load i32, ptr %15, align 8
  %17 = and i32 %16, 2
  %.not44 = icmp eq i32 %17, 0
  br i1 %.not44, label %19, label %18

18:                                               ; preds = %13
  tail call void @log_message_begin(ptr noundef nonnull @.str.4, ptr noundef nonnull @.str.5, i32 noundef 254) #4
  tail call void (ptr, ...) @log_message_end(ptr noundef nonnull @.str.6, ptr noundef nonnull @.str.7) #4
  br label %19

19:                                               ; preds = %13, %18
  %20 = load ptr, ptr %4, align 8
  %21 = getelementptr inbounds i8, ptr %20, i64 1368
  %22 = load ptr, ptr %21, align 8
  %23 = tail call i32 %22(ptr noundef nonnull %4, ptr noundef %5) #4
  %24 = icmp eq i32 %11, -1
  %25 = sub nsw i32 %23, %8
  %spec.select = select i1 %24, i32 %25, i32 %11
  %26 = icmp sgt i32 %8, -1
  %.not45 = icmp slt i32 %8, %23
  %or.cond = select i1 %26, i1 %.not45, i1 false
  br i1 %or.cond, label %28, label %27

27:                                               ; preds = %19
  tail call void @outStream_setError(ptr noundef %1, i16 noundef zeroext 503) #4
  br label %80

28:                                               ; preds = %19
  %29 = icmp slt i32 %spec.select, 0
  %30 = add nuw nsw i32 %spec.select, %8
  %31 = icmp sgt i32 %30, %23
  %or.cond52 = select i1 %29, i1 true, i1 %31
  br i1 %or.cond52, label %32, label %33

32:                                               ; preds = %28
  tail call void @outStream_setError(ptr noundef %1, i16 noundef zeroext 504) #4
  br label %80

33:                                               ; preds = %28
  tail call void @createLocalRefSpace(ptr noundef nonnull %4, i32 noundef 1) #4
  store ptr null, ptr %3, align 8
  %34 = load ptr, ptr @gdata, align 8
  %35 = getelementptr inbounds i8, ptr %34, i64 528
  %36 = load i32, ptr %35, align 8
  %37 = and i32 %36, 2
  %.not46 = icmp eq i32 %37, 0
  br i1 %.not46, label %39, label %38

38:                                               ; preds = %33
  tail call void @log_message_begin(ptr noundef nonnull @.str.4, ptr noundef nonnull @.str.5, i32 noundef 274) #4
  tail call void (ptr, ...) @log_message_end(ptr noundef nonnull @.str.6, ptr noundef nonnull @.str.8) #4
  br label %39

39:                                               ; preds = %33, %38
  %40 = load ptr, ptr %4, align 8
  %41 = getelementptr inbounds i8, ptr %40, i64 248
  %42 = load ptr, ptr %41, align 8
  %43 = tail call ptr %42(ptr noundef nonnull %4, ptr noundef %5) #4
  %44 = call i32 @classSignature(ptr noundef %43, ptr noundef nonnull %3, ptr noundef null) #4
  %45 = icmp eq i32 %44, 0
  br i1 %45, label %46, label %49

46:                                               ; preds = %39
  %47 = load ptr, ptr %3, align 8
  call fastcc void @writeComponents(ptr noundef nonnull %4, ptr noundef %1, ptr noundef %47, ptr noundef %5, i32 noundef %8, i32 noundef %spec.select)
  %48 = load ptr, ptr %3, align 8
  call void @jvmtiDeallocate(ptr noundef %48) #4
  br label %49

49:                                               ; preds = %46, %39
  %50 = load ptr, ptr @gdata, align 8
  %51 = getelementptr inbounds i8, ptr %50, i64 528
  %52 = load i32, ptr %51, align 8
  %53 = and i32 %52, 2
  %.not47 = icmp eq i32 %53, 0
  br i1 %.not47, label %55, label %54

54:                                               ; preds = %49
  call void @log_message_begin(ptr noundef nonnull @.str.4, ptr noundef nonnull @.str.5, i32 noundef 281) #4
  call void (ptr, ...) @log_message_end(ptr noundef nonnull @.str.6, ptr noundef nonnull @.str.9) #4
  br label %55

55:                                               ; preds = %49, %54
  %56 = load ptr, ptr %4, align 8
  %57 = getelementptr inbounds i8, ptr %56, i64 160
  %58 = load ptr, ptr %57, align 8
  %59 = call ptr %58(ptr noundef nonnull %4, ptr noundef null) #4
  %60 = load ptr, ptr @gdata, align 8
  %61 = getelementptr inbounds i8, ptr %60, i64 528
  %62 = load i32, ptr %61, align 8
  %63 = and i32 %62, 2
  %.not48 = icmp eq i32 %63, 0
  br i1 %.not48, label %65, label %64

64:                                               ; preds = %55
  call void @log_message_begin(ptr noundef nonnull @.str.4, ptr noundef nonnull @.str.5, i32 noundef 283) #4
  call void (ptr, ...) @log_message_end(ptr noundef nonnull @.str.6, ptr noundef nonnull @.str.10) #4
  br label %65

65:                                               ; preds = %55, %64
  %66 = load ptr, ptr %4, align 8
  %67 = getelementptr inbounds i8, ptr %66, i64 120
  %68 = load ptr, ptr %67, align 8
  %69 = call ptr %68(ptr noundef nonnull %4) #4
  %.not49 = icmp eq ptr %69, null
  br i1 %.not49, label %80, label %70

70:                                               ; preds = %65
  call void @outStream_setError(ptr noundef %1, i16 noundef zeroext 113) #4
  %71 = load ptr, ptr @gdata, align 8
  %72 = getelementptr inbounds i8, ptr %71, i64 528
  %73 = load i32, ptr %72, align 8
  %74 = and i32 %73, 2
  %.not50 = icmp eq i32 %74, 0
  br i1 %.not50, label %76, label %75

75:                                               ; preds = %70
  call void @log_message_begin(ptr noundef nonnull @.str.4, ptr noundef nonnull @.str.5, i32 noundef 285) #4
  call void (ptr, ...) @log_message_end(ptr noundef nonnull @.str.6, ptr noundef nonnull @.str.11) #4
  br label %76

76:                                               ; preds = %70, %75
  %77 = load ptr, ptr %4, align 8
  %78 = getelementptr inbounds i8, ptr %77, i64 136
  %79 = load ptr, ptr %78, align 8
  call void %79(ptr noundef nonnull %4) #4
  br label %80

80:                                               ; preds = %65, %76, %10, %7, %2, %32, %27
  ret i8 1
}